Certificate:
    Data:
        Version: 3 (0x2)
        Serial Number: 1 (0x1)
    Signature Algorithm: sha256WithRSAEncryption
        Issuer: O=YSU, OU=YSU M CA, CN=YSU M CA
        Validity
            Not Before: Oct  9 18:06:50 2016 GMT
            Not After : Oct  9 18:06:50 2018 GMT
        Subject: O=YSU, OU=YSU M CS, CN=Petr
        Subject Public Key Info:
            Public Key Algorithm: rsaEncryption
                Public-Key: (2048 bit)
                Modulus:
                    00:d4:98:70:6d:46:db:49:2e:85:90:f6:c4:e7:b6:
                    12:ce:80:f7:15:84:c8:e3:32:44:12:73:fd:f8:0d:
                    44:86:1a:76:db:f1:fc:c8:89:fa:09:eb:72:49:29:
                    32:40:6d:7b:60:5a:c9:83:8a:e3:8f:d2:60:ee:94:
                    85:2b:37:59:54:df:cb:8f:f4:09:91:fa:69:86:05:
                    52:3c:3a:f3:8b:4b:07:60:82:98:48:a2:ed:cf:6c:
                    9b:b0:f4:e2:95:65:aa:86:9b:8d:8e:c6:63:1f:67:
                    92:7d:ee:e3:b4:95:51:03:c1:88:50:0d:5a:4c:05:
                    2e:3d:b8:97:bd:3c:d5:fb:52:85:16:b9:ed:a8:d4:
                    e4:ef:7c:fb:9d:86:7f:60:78:fc:7c:e8:ff:26:7d:
                    3c:51:49:fe:2b:3f:70:c3:43:9b:d2:88:44:e5:41:
                    d8:37:6b:8e:85:4c:ed:6f:eb:fe:00:a0:cd:ee:8b:
                    ff:8f:9d:47:10:29:ce:99:57:eb:79:0d:75:76:00:
                    33:13:ef:51:05:f4:84:52:e6:cb:25:9f:e2:b0:67:
                    df:c5:6a:7b:28:9e:67:2d:e4:cf:81:80:13:75:ad:
                    77:f5:40:80:8b:eb:09:73:8f:73:f2:ed:71:ab:b4:
                    be:c8:ff:c1:1d:5e:90:79:f7:a5:8e:54:4d:14:f9:
                    ae:43
                Exponent: 65537 (0x10001)
        X509v3 extensions:
            X509v3 Key Usage: critical
                Digital Signature, Key Encipherment
            X509v3 Basic Constraints: 
                CA:FALSE
            X509v3 Extended Key Usage: critical
                E-mail Protection, TLS Web Client Authentication
            X509v3 Subject Key Identifier: 
                77:4B:D4:D6:AA:02:92:E1:27:08:8E:0D:3E:12:4A:CD:15:4F:A2:58
            X509v3 Authority Key Identifier: 
                keyid:F7:69:E5:47:97:39:70:97:E8:C2:27:70:6C:7B:0E:50:35:0A:37:30

            X509v3 Subject Alternative Name: 
                email:petr@somewh.ere
    Signature Algorithm: sha256WithRSAEncryption
         44:e5:32:ec:87:c6:21:c1:2a:cf:76:d1:e6:c4:2f:0c:48:f2:
         a1:94:61:9a:5c:94:f8:b1:d3:fc:71:9c:17:23:ff:6f:0b:3b:
         6e:70:4c:a1:8f:ff:5f:28:cb:7a:34:e1:32:4c:9b:f4:b1:98:
         f5:5d:cb:48:f8:17:0b:01:1d:5a:48:6d:34:02:89:2e:7d:7f:
         44:b2:a0:cb:e3:52:1a:b8:02:15:18:a0:93:68:a9:7b:f5:1e:
         ef:c7:64:d8:0f:8e:10:85:10:c1:1e:bc:9d:d8:cb:88:3f:37:
         06:18:40:c8:da:b8:d5:5a:af:8d:2c:70:ed:d2:8c:8a:3f:28:
         ed:77:c7:34:1d:6c:4d:20:06:29:ca:2c:dd:96:03:b5:e7:a8:
         f6:f8:a8:4f:b0:1a:07:90:dc:64:55:3e:73:0e:15:f3:ab:00:
         73:70:4c:50:ed:34:81:d8:74:6a:65:aa:9e:50:46:9a:59:4c:
         7e:96:b8:56:1b:78:5c:22:a1:0d:77:66:89:5c:7d:41:76:b2:
         01:3a:13:5d:ea:99:4e:a7:3f:a7:f3:8a:32:55:0b:ca:2e:29:
         83:41:4b:f4:e2:f9:0e:45:f9:12:41:72:bf:8e:62:20:66:29:
         b7:ea:f3:ac:89:4e:58:c5:bd:e0:98:14:d9:07:a9:4e:48:9a:
         2c:31:64:ed
-----BEGIN CERTIFICATE-----
MIIDfDCCAmSgAwIBAgIBATANBgkqhkiG9w0BAQsFADA0MQwwCgYDVQQKDANZU1Ux
ETAPBgNVBAsMCFlTVSBNIENBMREwDwYDVQQDDAhZU1UgTSBDQTAeFw0xNjEwMDkx
ODA2NTBaFw0xODEwMDkxODA2NTBaMDAxDDAKBgNVBAoMA1lTVTERMA8GA1UECwwI
WVNVIE0gQ1MxDTALBgNVBAMMBFBldHIwggEiMA0GCSqGSIb3DQEBAQUAA4IBDwAw
ggEKAoIBAQDUmHBtRttJLoWQ9sTnthLOgPcVhMjjMkQSc/34DUSGGnbb8fzIifoJ
63JJKTJAbXtgWsmDiuOP0mDulIUrN1lU38uP9AmR+mmGBVI8OvOLSwdggphIou3P
bJuw9OKVZaqGm42OxmMfZ5J97uO0lVEDwYhQDVpMBS49uJe9PNX7UoUWue2o1OTv
fPudhn9gePx86P8mfTxRSf4rP3DDQ5vSiETlQdg3a46FTO1v6/4AoM3ui/+PnUcQ
Kc6ZV+t5DXV2ADMT71EF9IRS5ssln+KwZ9/Fansonmct5M+BgBN1rXf1QICL6wlz
j3Py7XGrtL7I/8EdXpB596WOVE0U+a5DAgMBAAGjgZwwgZkwDgYDVR0PAQH/BAQD
AgWgMAkGA1UdEwQCMAAwIAYDVR0lAQH/BBYwFAYIKwYBBQUHAwQGCCsGAQUFBwMC
MB0GA1UdDgQWBBR3S9TWqgKS4ScIjg0+EkrNFU+iWDAfBgNVHSMEGDAWgBT3aeVH
lzlwl+jCJ3Bsew5QNQo3MDAaBgNVHREEEzARgQ9wZXRyQHNvbWV3aC5lcmUwDQYJ
KoZIhvcNAQELBQADggEBAETlMuyHxiHBKs920ebELwxI8qGUYZpclPix0/xxnBcj
/28LO25wTKGP/18oy3o04TJMm/SxmPVdy0j4FwsBHVpIbTQCiS59f0SyoMvjUhq4
AhUYoJNoqXv1Hu/HZNgPjhCFEMEevJ3Yy4g/NwYYQMjauNVar40scO3SjIo/KO13
xzQdbE0gBinKLN2WA7XnqPb4qE+wGgeQ3GRVPnMOFfOrAHNwTFDtNIHYdGplqp5Q
RppZTH6WuFYbeFwioQ13ZolcfUF2sgE6E13qmU6nP6fzijJVC8ouKYNBS/Ti+Q5F
+RJBcr+OYiBmKbfq86yJTljFveCYFNkHqU5ImiwxZO0=
-----END CERTIFICATE-----
