Certificate:
    Data:
        Version: 3 (0x2)
        Serial Number: 1 (0x1)
    Signature Algorithm: sha256WithRSAEncryption
        Issuer: O=YSU, OU=YSU CA, CN=YSU CA
        Validity
            Not Before: Oct  9 17:56:48 2016 GMT
            Not After : Oct  9 17:56:48 2026 GMT
        Subject: O=YSU, OU=YSU CA, CN=YSU CA
        Subject Public Key Info:
            Public Key Algorithm: rsaEncryption
                Public-Key: (2048 bit)
                Modulus:
                    00:c9:90:71:56:f6:ae:14:97:89:13:ac:1e:f4:a3:
                    09:7c:73:cf:3f:23:8b:e4:25:0c:c9:cb:9f:56:b0:
                    06:52:a6:70:e9:a6:1a:62:96:6f:2f:d1:4e:43:27:
                    10:22:93:c2:90:b5:7c:46:51:61:06:e3:10:8d:80:
                    70:5e:d3:d0:8b:3d:58:cd:e2:63:58:a8:16:49:e9:
                    4d:17:aa:34:df:1a:e2:da:fa:ed:f7:3d:e9:ac:7c:
                    76:d2:07:6a:3f:8e:0d:b4:08:ee:e1:a8:3d:3c:c7:
                    64:50:91:23:ad:17:6f:cf:e3:dd:09:3d:d3:97:e7:
                    33:9b:46:c0:92:b5:cd:3a:df:73:b6:9a:27:46:88:
                    6a:8a:86:d5:64:96:5d:45:e9:24:d0:60:15:34:06:
                    d7:fb:1f:25:29:a9:a5:07:e5:52:43:1b:8c:d8:c6:
                    ce:5a:b8:0d:b4:be:64:a6:b2:7e:b9:d4:4a:a7:3f:
                    12:4a:2e:6b:9c:a2:c2:96:d7:83:09:6a:dd:10:d0:
                    35:4e:3e:20:54:40:82:87:d0:6e:69:9b:1c:78:d0:
                    94:a7:4a:5d:3e:25:0e:db:7e:fa:0e:e5:50:a6:99:
                    ce:7b:e1:5a:3e:6a:08:2b:1a:74:5a:4d:d6:a4:09:
                    d8:fa:5d:ee:82:cd:95:7b:a5:3a:41:ee:b1:d5:5a:
                    6d:d5
                Exponent: 65537 (0x10001)
        X509v3 extensions:
            X509v3 Key Usage: critical
                Certificate Sign, CRL Sign
            X509v3 Basic Constraints: critical
                CA:TRUE
            X509v3 Subject Key Identifier: 
                69:2B:49:68:9A:8E:4C:89:0E:AB:B8:EB:71:36:2B:87:9A:19:C1:8B
            X509v3 Authority Key Identifier: 
                keyid:69:2B:49:68:9A:8E:4C:89:0E:AB:B8:EB:71:36:2B:87:9A:19:C1:8B

    Signature Algorithm: sha256WithRSAEncryption
         68:db:c9:fc:6d:4b:46:2d:67:8d:a7:eb:2c:3a:44:85:f5:01:
         88:9e:0e:ed:da:0a:b7:07:78:d6:2d:6f:0f:f2:e1:7e:36:56:
         ff:8b:4e:da:00:fc:68:46:88:ff:b1:34:a2:15:04:6c:4b:39:
         3a:63:b5:78:0f:55:ff:ed:8c:d7:f8:1e:3c:8d:d1:40:f8:b4:
         fd:79:3b:2f:cf:b5:0e:57:af:36:eb:94:23:f5:8c:cf:34:c1:
         cf:82:74:aa:ff:1f:9b:07:5b:40:10:db:f7:4c:c9:93:d1:52:
         0b:0f:b7:fe:f8:0e:e0:d9:f3:61:f1:fa:55:ec:e8:4c:27:1a:
         6a:1a:bd:52:a1:00:44:5f:f1:08:67:f0:8e:b8:1a:bc:f2:77:
         7e:e4:58:40:a2:57:c9:09:2c:75:62:68:ae:70:d3:a1:a8:2c:
         32:b6:3d:f0:a8:99:f5:95:83:7f:74:c4:b4:4e:7e:07:4e:25:
         4f:ea:9c:d0:65:f5:f7:11:55:26:ab:6d:ef:b7:28:d0:e6:c1:
         9d:4e:17:ee:5e:1a:1e:ae:9b:33:06:6a:c6:b9:fc:42:81:e1:
         61:d2:bf:a2:09:6a:b8:60:b7:a8:dd:dd:8a:f5:e3:1e:bb:4d:
         03:0b:a6:81:c9:e3:99:10:c4:80:0b:82:fc:67:49:d1:68:8e:
         3f:09:90:8e
-----BEGIN CERTIFICATE-----
MIIDPjCCAiagAwIBAgIBATANBgkqhkiG9w0BAQsFADAwMQwwCgYDVQQKDANZU1Ux
DzANBgNVBAsMBllTVSBDQTEPMA0GA1UEAwwGWVNVIENBMB4XDTE2MTAwOTE3NTY0
OFoXDTI2MTAwOTE3NTY0OFowMDEMMAoGA1UECgwDWVNVMQ8wDQYDVQQLDAZZU1Ug
Q0ExDzANBgNVBAMMBllTVSBDQTCCASIwDQYJKoZIhvcNAQEBBQADggEPADCCAQoC
ggEBAMmQcVb2rhSXiROsHvSjCXxzzz8ji+QlDMnLn1awBlKmcOmmGmKWby/RTkMn
ECKTwpC1fEZRYQbjEI2AcF7T0Is9WM3iY1ioFknpTReqNN8a4tr67fc96ax8dtIH
aj+ODbQI7uGoPTzHZFCRI60Xb8/j3Qk905fnM5tGwJK1zTrfc7aaJ0aIaoqG1WSW
XUXpJNBgFTQG1/sfJSmppQflUkMbjNjGzlq4DbS+ZKayfrnUSqc/Ekoua5yiwpbX
gwlq3RDQNU4+IFRAgofQbmmbHHjQlKdKXT4lDtt++g7lUKaZznvhWj5qCCsadFpN
1qQJ2Ppd7oLNlXulOkHusdVabdUCAwEAAaNjMGEwDgYDVR0PAQH/BAQDAgEGMA8G
A1UdEwEB/wQFMAMBAf8wHQYDVR0OBBYEFGkrSWiajkyJDqu463E2K4eaGcGLMB8G
A1UdIwQYMBaAFGkrSWiajkyJDqu463E2K4eaGcGLMA0GCSqGSIb3DQEBCwUAA4IB
AQBo28n8bUtGLWeNp+ssOkSF9QGIng7t2gq3B3jWLW8P8uF+Nlb/i07aAPxoRoj/
sTSiFQRsSzk6Y7V4D1X/7YzX+B48jdFA+LT9eTsvz7UOV68265Qj9YzPNMHPgnSq
/x+bB1tAENv3TMmT0VILD7f++A7g2fNh8fpV7OhMJxpqGr1SoQBEX/EIZ/COuBq8
8nd+5FhAolfJCSx1YmiucNOhqCwytj3wqJn1lYN/dMS0Tn4HTiVP6pzQZfX3EVUm
q23vtyjQ5sGdThfuXhoerpszBmrGufxCgeFh0r+iCWq4YLeo3d2K9eMeu00DC6aB
yeOZEMSAC4L8Z0nRaI4/CZCO
-----END CERTIFICATE-----
