Certificate:
    Data:
        Version: 3 (0x2)
        Serial Number: 2 (0x2)
    Signature Algorithm: sha256WithRSAEncryption
        Issuer: O=YSU, OU=YSU CA, CN=YSU CA
        Validity
            Not Before: Oct  9 18:00:54 2016 GMT
            Not After : Oct  9 18:00:54 2026 GMT
        Subject: O=YSU, OU=YSU M CA, CN=YSU M CA
        Subject Public Key Info:
            Public Key Algorithm: rsaEncryption
                Public-Key: (2048 bit)
                Modulus:
                    00:da:3f:7d:e1:14:72:a7:ed:ef:f3:c3:73:29:51:
                    e0:99:75:04:4f:60:f8:e4:57:73:79:4f:88:5a:80:
                    a9:e0:e7:8c:0f:7c:79:cf:1b:1f:e8:e4:ca:b5:de:
                    f6:3e:a2:8e:bc:80:04:eb:fe:6f:aa:03:2b:32:dd:
                    ec:a0:b0:c9:37:d4:33:ea:a6:4c:bd:6e:c5:7d:d2:
                    0f:1d:c2:62:7b:cf:52:24:0b:4c:26:c0:ab:af:2e:
                    16:d0:e8:92:91:fd:d4:24:38:08:bc:7f:54:43:91:
                    de:c2:a6:cb:1e:09:af:41:1e:58:ce:72:0f:0a:cd:
                    1f:08:30:d6:a2:a1:5e:29:88:1f:58:dc:bd:7b:be:
                    2e:7a:77:5d:b5:2c:88:df:62:c4:f7:87:dc:96:12:
                    76:0c:5c:f3:fe:0a:e9:5c:35:27:3a:8e:eb:44:c2:
                    46:5e:c4:2a:ce:0c:6b:bf:22:c2:be:1f:ca:ee:6e:
                    25:be:7b:d9:2d:e1:b8:c4:18:14:76:93:2a:82:0d:
                    9d:df:a7:16:38:48:63:2a:d0:05:1f:f2:4f:43:26:
                    35:41:57:04:52:0f:86:7d:96:fd:8c:4e:f1:06:dd:
                    d5:08:3d:b3:c3:1e:ac:01:d9:a2:e3:9e:79:e3:66:
                    0c:b9:bb:8e:43:c0:2d:30:ca:b3:ef:14:51:af:75:
                    e3:23
                Exponent: 65537 (0x10001)
        X509v3 extensions:
            X509v3 Key Usage: critical
                Certificate Sign, CRL Sign
            X509v3 Basic Constraints: critical
                CA:TRUE, pathlen:0
            X509v3 Subject Key Identifier: 
                F7:69:E5:47:97:39:70:97:E8:C2:27:70:6C:7B:0E:50:35:0A:37:30
            X509v3 Authority Key Identifier: 
                keyid:69:2B:49:68:9A:8E:4C:89:0E:AB:B8:EB:71:36:2B:87:9A:19:C1:8B

    Signature Algorithm: sha256WithRSAEncryption
         1b:a7:8e:c3:cf:44:4b:b4:e1:62:d9:5a:6f:48:68:dc:dd:f3:
         b2:6d:33:f9:6e:0d:e7:82:04:d0:69:cc:eb:35:15:0a:3c:9d:
         8e:8e:f3:ce:4d:77:66:82:ba:e4:21:a9:98:b4:13:c2:58:46:
         2f:4f:5b:02:86:b4:00:5e:16:b2:b5:35:c5:2e:96:a9:4a:f9:
         a3:50:e7:a9:7a:e8:82:db:2f:12:2e:54:b6:12:a7:0f:75:28:
         6d:84:2a:be:12:58:71:5d:0d:64:7c:84:e0:33:4a:d4:34:0e:
         41:07:30:cb:d5:ab:b4:91:83:9f:90:cc:8d:33:9b:88:dc:11:
         6d:1c:25:9e:07:56:39:61:99:5c:64:66:25:35:b2:de:0b:6f:
         9d:2d:58:a7:30:8d:48:f3:68:9b:c0:41:4c:42:88:58:49:2b:
         60:eb:16:21:4a:df:b1:60:db:6f:b7:83:1e:6f:de:03:de:fc:
         8d:ba:1b:8e:50:de:15:b6:2f:88:3f:a2:ce:19:47:38:52:6a:
         ff:5f:a2:7e:2d:90:2b:9c:c6:66:b2:98:3a:1d:ab:b9:c4:5f:
         71:ea:3f:d4:35:3d:d2:e3:fa:b7:ff:b6:92:b1:8b:5b:f0:5f:
         fd:24:3e:9b:54:1f:ef:f6:d1:86:dd:1b:4e:ba:b8:d3:04:57:
         d4:9e:15:57
-----BEGIN CERTIFICATE-----
MIIDRTCCAi2gAwIBAgIBAjANBgkqhkiG9w0BAQsFADAwMQwwCgYDVQQKDANZU1Ux
DzANBgNVBAsMBllTVSBDQTEPMA0GA1UEAwwGWVNVIENBMB4XDTE2MTAwOTE4MDA1
NFoXDTI2MTAwOTE4MDA1NFowNDEMMAoGA1UECgwDWVNVMREwDwYDVQQLDAhZU1Ug
TSBDQTERMA8GA1UEAwwIWVNVIE0gQ0EwggEiMA0GCSqGSIb3DQEBAQUAA4IBDwAw
ggEKAoIBAQDaP33hFHKn7e/zw3MpUeCZdQRPYPjkV3N5T4hagKng54wPfHnPGx/o
5Mq13vY+oo68gATr/m+qAysy3eygsMk31DPqpky9bsV90g8dwmJ7z1IkC0wmwKuv
LhbQ6JKR/dQkOAi8f1RDkd7CpsseCa9BHljOcg8KzR8IMNaioV4piB9Y3L17vi56
d121LIjfYsT3h9yWEnYMXPP+CulcNSc6jutEwkZexCrODGu/IsK+H8rubiW+e9kt
4bjEGBR2kyqCDZ3fpxY4SGMq0AUf8k9DJjVBVwRSD4Z9lv2MTvEG3dUIPbPDHqwB
2aLjnnnjZgy5u45DwC0wyrPvFFGvdeMjAgMBAAGjZjBkMA4GA1UdDwEB/wQEAwIB
BjASBgNVHRMBAf8ECDAGAQH/AgEAMB0GA1UdDgQWBBT3aeVHlzlwl+jCJ3Bsew5Q
NQo3MDAfBgNVHSMEGDAWgBRpK0lomo5MiQ6ruOtxNiuHmhnBizANBgkqhkiG9w0B
AQsFAAOCAQEAG6eOw89ES7ThYtlab0ho3N3zsm0z+W4N54IE0GnM6zUVCjydjo7z
zk13ZoK65CGpmLQTwlhGL09bAoa0AF4WsrU1xS6WqUr5o1DnqXrogtsvEi5UthKn
D3UobYQqvhJYcV0NZHyE4DNK1DQOQQcwy9WrtJGDn5DMjTObiNwRbRwlngdWOWGZ
XGRmJTWy3gtvnS1YpzCNSPNom8BBTEKIWEkrYOsWIUrfsWDbb7eDHm/eA978jbob
jlDeFbYviD+izhlHOFJq/1+ifi2QK5zGZrKYOh2rucRfceo/1DU90uP6t/+2krGL
W/Bf/SQ+m1Qf7/bRht0bTrq40wRX1J4VVw==
-----END CERTIFICATE-----
